target datalayout = "e-m:e-p270:32:32-p271:32:32-p272:64:64-i64:64-i128:128-f80:128-n8:16:32:64-S128"
target triple = "x86_64-unknown-linux-gnu"

%"class.v8::IndirectHandleBase" = type { ptr }
%"class.node::MemoryRetainer" = type { ptr }
%"class.node::ListNode" = type { ptr, ptr }
%"class.node::LibuvStreamWrap" = type { %"class.node::HandleWrap", %"class.node::StreamBase", ptr }
%"class.node::HandleWrap" = type { %"class.node::AsyncWrap", i32, %"class.node::ListNode", ptr }
%"class.node::AsyncWrap" = type { %"class.node::BaseObject", i32, i8, double, double }
%"class.node::BaseObject" = type { %"class.node::MemoryRetainer", %"class.v8::Global.278", ptr, ptr }
%"class.v8::Global.278" = type { %"class.v8::PersistentBase.279" }
%"class.v8::PersistentBase.279" = type { %"class.v8::IndirectHandleBase" }
%"class.node::StreamBase" = type { %"class.node::StreamResource", ptr, %"class.node::EmitToJSStreamListener" }
%"class.node::StreamResource" = type { ptr, ptr, i64, i64 }
%"class.node::EmitToJSStreamListener" = type { %"class.node::ReportWritesToJSStreamListener" }
%"class.node::ReportWritesToJSStreamListener" = type { %"class.node::StreamListener" }
%"class.node::StreamListener" = type { ptr, ptr, ptr }
%struct.uv_buf_t = type { ptr, i64 }

; Function Attrs: mustprogress nounwind uwtable
define linkonce_odr dso_local noundef ptr @_ZNK4node15LibuvStreamWrap6streamEv(ptr noundef nonnull align 8 dereferenceable(160) %this) #4 comdat align 2 {
entry:
  %this.addr = alloca ptr, align 8
  store ptr %this, ptr %this.addr, align 8
  %this1 = load ptr, ptr %this.addr, align 8
  %stream_ = getelementptr inbounds %"class.node::LibuvStreamWrap", ptr %this1, i32 0, i32 2
  %0 = load ptr, ptr %stream_, align 8
  ret ptr %0
}

; Function Attrs: mustprogress nounwind uwtable
define dso_local noundef i32 @_ZN4node15LibuvStreamWrap10DoTryWriteEPP8uv_buf_tPm(ptr noundef nonnull align 8 dereferenceable(160) %this, ptr noundef %bufs, ptr noundef %count) unnamed_addr #4 align 2 {
entry:
  %retval = alloca i32, align 4
  %this.addr = alloca ptr, align 8
  %bufs.addr = alloca ptr, align 8
  %count.addr = alloca ptr, align 8
  %err = alloca i32, align 4
  %written = alloca i64, align 8
  %vbufs = alloca ptr, align 8
  %vcount = alloca i64, align 8
  store ptr %this, ptr %this.addr, align 8
  store ptr %bufs, ptr %bufs.addr, align 8
  store ptr %count, ptr %count.addr, align 8
  %this1 = load ptr, ptr %this.addr, align 8
  %0 = load ptr, ptr %bufs.addr, align 8
  %1 = load ptr, ptr %0, align 8
  store ptr %1, ptr %vbufs, align 8
  %2 = load ptr, ptr %count.addr, align 8
  %3 = load i64, ptr %2, align 8
  store i64 %3, ptr %vcount, align 8
  %call = call noundef ptr @_ZNK4node15LibuvStreamWrap6streamEv(ptr noundef nonnull align 8 dereferenceable(160) %this1)
  %4 = load ptr, ptr %vbufs, align 8
  %5 = load i64, ptr %vcount, align 8
  %conv = trunc i64 %5 to i32
  %call2 = call i32 @uv_try_write(ptr noundef %call, ptr noundef %4, i32 noundef %conv)
  store i32 %call2, ptr %err, align 4
  %6 = load i32, ptr %err, align 4
  %cmp = icmp eq i32 %6, -38
  br i1 %cmp, label %if.then, label %lor.lhs.false

lor.lhs.false:                                    ; preds = %entry
  %7 = load i32, ptr %err, align 4
  %cmp3 = icmp eq i32 %7, -11
  br i1 %cmp3, label %if.then, label %if.end

if.then:                                          ; preds = %lor.lhs.false, %entry
  store i32 0, ptr %retval, align 4
  br label %return

if.end:                                           ; preds = %lor.lhs.false
  %8 = load i32, ptr %err, align 4
  %cmp4 = icmp slt i32 %8, 0
  br i1 %cmp4, label %if.then5, label %if.end6

if.then5:                                         ; preds = %if.end
  %9 = load i32, ptr %err, align 4
  store i32 %9, ptr %retval, align 4
  br label %return

if.end6:                                          ; preds = %if.end
  %10 = load i32, ptr %err, align 4
  %conv7 = sext i32 %10 to i64
  store i64 %conv7, ptr %written, align 8
  br label %for.cond

for.cond:                                         ; preds = %for.inc, %if.end6
  %11 = load i64, ptr %vcount, align 8
  %cmp8 = icmp ugt i64 %11, 0
  br i1 %cmp8, label %for.body, label %for.end

for.body:                                         ; preds = %for.cond
  %12 = load ptr, ptr %vbufs, align 8
  %arrayidx = getelementptr inbounds %struct.uv_buf_t, ptr %12, i64 0
  %len = getelementptr inbounds %struct.uv_buf_t, ptr %arrayidx, i32 0, i32 1
  %13 = load i64, ptr %len, align 8
  %14 = load i64, ptr %written, align 8
  %cmp9 = icmp ugt i64 %13, %14
  br i1 %cmp9, label %if.then10, label %if.else

if.then10:                                        ; preds = %for.body
  %15 = load i64, ptr %written, align 8
  %16 = load ptr, ptr %vbufs, align 8
  %arrayidx11 = getelementptr inbounds %struct.uv_buf_t, ptr %16, i64 0
  %base = getelementptr inbounds %struct.uv_buf_t, ptr %arrayidx11, i32 0, i32 0
  %17 = load ptr, ptr %base, align 8
  %add.ptr = getelementptr inbounds i8, ptr %17, i64 %15
  store ptr %add.ptr, ptr %base, align 8
  %18 = load i64, ptr %written, align 8
  %19 = load ptr, ptr %vbufs, align 8
  %arrayidx12 = getelementptr inbounds %struct.uv_buf_t, ptr %19, i64 0
  %len13 = getelementptr inbounds %struct.uv_buf_t, ptr %arrayidx12, i32 0, i32 1
  %20 = load i64, ptr %len13, align 8
  %sub = sub i64 %20, %18
  store i64 %sub, ptr %len13, align 8
  store i64 0, ptr %written, align 8
  br label %for.end

if.else:                                          ; preds = %for.body
  %21 = load ptr, ptr %vbufs, align 8
  %arrayidx14 = getelementptr inbounds %struct.uv_buf_t, ptr %21, i64 0
  %len15 = getelementptr inbounds %struct.uv_buf_t, ptr %arrayidx14, i32 0, i32 1
  %22 = load i64, ptr %len15, align 8
  %23 = load i64, ptr %written, align 8
  %sub16 = sub i64 %23, %22
  store i64 %sub16, ptr %written, align 8
  br label %if.end17

if.end17:                                         ; preds = %if.else
  br label %for.inc

for.inc:                                          ; preds = %if.end17
  %24 = load ptr, ptr %vbufs, align 8
  %incdec.ptr = getelementptr inbounds %struct.uv_buf_t, ptr %24, i32 1
  store ptr %incdec.ptr, ptr %vbufs, align 8
  %25 = load i64, ptr %vcount, align 8
  %dec = add i64 %25, -1
  store i64 %dec, ptr %vcount, align 8
  br label %for.cond, !llvm.loop !5

for.end:                                          ; preds = %if.then10, %for.cond
  %26 = load ptr, ptr %vbufs, align 8
  %27 = load ptr, ptr %bufs.addr, align 8
  store ptr %26, ptr %27, align 8
  %28 = load i64, ptr %vcount, align 8
  %29 = load ptr, ptr %count.addr, align 8
  store i64 %28, ptr %29, align 8
  store i32 0, ptr %retval, align 4
  br label %return

return:                                           ; preds = %for.end, %if.then5, %if.then
  %30 = load i32, ptr %retval, align 4
  ret i32 %30
}