; Function Attrs: mustprogress nounwind uwtable
define dso_local noundef i32 @_ZN4node15LibuvStreamWrap10DoTryWriteEPP8uv_buf_tPm(ptr nocapture noundef nonnull readonly align 8 dereferenceable(160) %this, ptr nocapture noundef %bufs, ptr nocapture noundef %count) unnamed_addr #3 align 2 {
entry:
  %0 = load ptr, ptr %bufs, align 8
  %1 = load i64, ptr %count, align 8
  %stream_.i = getelementptr inbounds i8, ptr %this, i64 152
  %2 = load ptr, ptr %stream_.i, align 8
  %conv = trunc i64 %1 to i32
  %call2 = tail call i32 @uv_try_write(ptr noundef %2, ptr noundef %0, i32 noundef %conv) #17
  switch i32 %call2, label %if.end [
    i32 -11, label %return
    i32 -38, label %return
  ]

if.end:                                           ; preds = %entry
  %cmp4 = icmp slt i32 %call2, 0
  br i1 %cmp4, label %return, label %if.end6

if.end6:                                          ; preds = %if.end
  %cmp8.not25 = icmp eq i64 %1, 0
  br i1 %cmp8.not25, label %for.end, label %for.body.preheader

for.body.preheader:                               ; preds = %if.end6
  %conv7 = zext nneg i32 %call2 to i64
  %3 = shl i64 %1, 4
  %scevgep = getelementptr i8, ptr %0, i64 %3
  br label %for.body

for.body:                                         ; preds = %for.body.preheader, %if.else
  %vcount.028 = phi i64 [ %dec, %if.else ], [ %1, %for.body.preheader ]
  %vbufs.027 = phi ptr [ %incdec.ptr, %if.else ], [ %0, %for.body.preheader ]
  %written.026 = phi i64 [ %sub16, %if.else ], [ %conv7, %for.body.preheader ]
  %len = getelementptr inbounds i8, ptr %vbufs.027, i64 8
  %4 = load i64, ptr %len, align 8
  %cmp9 = icmp ugt i64 %4, %written.026
  br i1 %cmp9, label %if.then10, label %if.else

if.then10:                                        ; preds = %for.body
  %len.le = getelementptr inbounds i8, ptr %vbufs.027, i64 8
  %5 = load ptr, ptr %vbufs.027, align 8
  %add.ptr = getelementptr inbounds i8, ptr %5, i64 %written.026
  store ptr %add.ptr, ptr %vbufs.027, align 8
  %sub = sub i64 %4, %written.026
  store i64 %sub, ptr %len.le, align 8
  br label %for.end

if.else:                                          ; preds = %for.body
  %sub16 = sub i64 %written.026, %4
  %incdec.ptr = getelementptr inbounds i8, ptr %vbufs.027, i64 16
  %dec = add i64 %vcount.028, -1
  %cmp8.not = icmp eq i64 %dec, 0
  br i1 %cmp8.not, label %for.end, label %for.body, !llvm.loop !5

for.end:                                          ; preds = %if.else, %if.end6, %if.then10
  %vbufs.022 = phi ptr [ %vbufs.027, %if.then10 ], [ %0, %if.end6 ], [ %scevgep, %if.else ]
  %vcount.020 = phi i64 [ %vcount.028, %if.then10 ], [ 0, %if.end6 ], [ 0, %if.else ]
  store ptr %vbufs.022, ptr %bufs, align 8
  store i64 %vcount.020, ptr %count, align 8
  br label %return

return:                                           ; preds = %if.end, %entry, %entry, %for.end
  %retval.0 = phi i32 [ 0, %for.end ], [ 0, %entry ], [ 0, %entry ], [ %call2, %if.end ]
  ret i32 %retval.0
}